target datalayout = "e-m:e-p270:32:32-p271:32:32-p272:64:64-i64:64-i128:128-f80:128-n8:16:32:64-S128"
target triple = "x86_64-pc-linux-gnu"

%"class.btSoftBody::DeformableRigidContact" = type { %"struct.btSoftBody::sCti", %class.btMatrix3x3, %class.btVector3, float, float, float, %class.btMatrix3x3, [4 x i8], %struct.btMultiBodyJacobianData, %struct.btMultiBodyJacobianData, %struct.btMultiBodyJacobianData, %class.btVector3, %class.btVector3 }
%"struct.btSoftBody::sCti" = type <{ ptr, %class.btVector3, %class.btVector3, float, %class.btVector3, [4 x i8] }>
%class.btMatrix3x3 = type { [3 x %class.btVector3] }
%struct.btMultiBodyJacobianData = type <{ %class.btAlignedObjectArray, %class.btAlignedObjectArray, %class.btAlignedObjectArray, %class.btAlignedObjectArray, %class.btAlignedObjectArray.0, %class.btAlignedObjectArray.2, ptr, i32, [4 x i8] }>
%class.btAlignedObjectArray = type <{ [4 x i8], i32, i32, [4 x i8], ptr, i8, [7 x i8] }>
%class.btAlignedObjectArray.0 = type <{ [4 x i8], i32, i32, [4 x i8], ptr, i8, [7 x i8] }>
%class.btAlignedObjectArray.2 = type <{ [4 x i8], i32, i32, [4 x i8], ptr, i8, [7 x i8] }>
%class.btVector3 = type { [4 x float] }
%class.btDeformableContactConstraint = type { ptr, i8, ptr, %class.btVector3 }
%"struct.btSoftBody::Feature" = type { %"struct.btSoftBody::Element", ptr }
%"struct.btSoftBody::Element" = type { ptr }
%class.btDeformableRigidContactConstraint = type { %class.btDeformableContactConstraint, %class.btVector3, %class.btVector3, float, float, i8, ptr }
%class.btDeformableFaceRigidContactConstraint = type <{ %class.btDeformableRigidContactConstraint, ptr, i8, [7 x i8] }>
%"class.btSoftBody::DeformableFaceRigidContact" = type { %"class.btSoftBody::DeformableRigidContact", ptr, %class.btVector3, %class.btVector3, %class.btVector3 }
%"struct.btSoftBody::Face" = type <{ %"struct.btSoftBody::Feature", [3 x ptr], %class.btVector3, float, [4 x i8], ptr, %class.btVector4, %class.btVector3, %class.btVector3, %class.btVector3, i32, [4 x i8] }>
%class.btVector4 = type { %class.btVector3 }

; Function Attrs: inlinehint mustprogress nounwind uwtable
define linkonce_odr dso_local void @_ZN9btVector3C2ERKfS1_S1_(ptr noundef nonnull align 4 dereferenceable(16) %0, ptr noundef nonnull align 4 dereferenceable(4) %1, ptr noundef nonnull align 4 dereferenceable(4) %2, ptr noundef nonnull align 4 dereferenceable(4) %3) unnamed_addr #5 comdat align 2 {
  %5 = alloca ptr, align 8
  %6 = alloca ptr, align 8
  %7 = alloca ptr, align 8
  %8 = alloca ptr, align 8
  store ptr %0, ptr %5, align 8, !tbaa !27
  store ptr %1, ptr %6, align 8, !tbaa !56
  store ptr %2, ptr %7, align 8, !tbaa !56
  store ptr %3, ptr %8, align 8, !tbaa !56
  %9 = load ptr, ptr %5, align 8
  %10 = load ptr, ptr %6, align 8, !tbaa !56
  %11 = load float, ptr %10, align 4, !tbaa !36
  %12 = getelementptr inbounds nuw %class.btVector3, ptr %9, i32 0, i32 0
  %13 = getelementptr inbounds [4 x float], ptr %12, i64 0, i64 0
  store float %11, ptr %13, align 4, !tbaa !36
  %14 = load ptr, ptr %7, align 8, !tbaa !56
  %15 = load float, ptr %14, align 4, !tbaa !36
  %16 = getelementptr inbounds nuw %class.btVector3, ptr %9, i32 0, i32 0
  %17 = getelementptr inbounds [4 x float], ptr %16, i64 0, i64 1
  store float %15, ptr %17, align 4, !tbaa !36
  %18 = load ptr, ptr %8, align 8, !tbaa !56
  %19 = load float, ptr %18, align 4, !tbaa !36
  %20 = getelementptr inbounds nuw %class.btVector3, ptr %9, i32 0, i32 0
  %21 = getelementptr inbounds [4 x float], ptr %20, i64 0, i64 2
  store float %19, ptr %21, align 4, !tbaa !36
  %22 = getelementptr inbounds nuw %class.btVector3, ptr %9, i32 0, i32 0
  %23 = getelementptr inbounds [4 x float], ptr %22, i64 0, i64 3
  store float 0.000000e+00, ptr %23, align 4, !tbaa !36
  ret void
}

; Function Attrs: inlinehint mustprogress uwtable
define linkonce_odr dso_local { <2 x float>, <2 x float> } @_ZmlRK9btVector3RKf(ptr noundef nonnull align 4 dereferenceable(16) %0, ptr noundef nonnull align 4 dereferenceable(4) %1) #8 comdat {
  %3 = alloca %class.btVector3, align 4
  %4 = alloca ptr, align 8
  %5 = alloca ptr, align 8
  %6 = alloca float, align 4
  %7 = alloca float, align 4
  %8 = alloca float, align 4
  store ptr %0, ptr %4, align 8, !tbaa !27
  store ptr %1, ptr %5, align 8, !tbaa !56
  call void @llvm.lifetime.start.p0(i64 4, ptr %6) #13
  %9 = load ptr, ptr %4, align 8, !tbaa !27
  %10 = getelementptr inbounds nuw %class.btVector3, ptr %9, i32 0, i32 0
  %11 = getelementptr inbounds [4 x float], ptr %10, i64 0, i64 0
  %12 = load float, ptr %11, align 4, !tbaa !36
  %13 = load ptr, ptr %5, align 8, !tbaa !56
  %14 = load float, ptr %13, align 4, !tbaa !36
  %15 = fmul float %12, %14
  store float %15, ptr %6, align 4, !tbaa !36
  call void @llvm.lifetime.start.p0(i64 4, ptr %7) #13
  %16 = load ptr, ptr %4, align 8, !tbaa !27
  %17 = getelementptr inbounds nuw %class.btVector3, ptr %16, i32 0, i32 0
  %18 = getelementptr inbounds [4 x float], ptr %17, i64 0, i64 1
  %19 = load float, ptr %18, align 4, !tbaa !36
  %20 = load ptr, ptr %5, align 8, !tbaa !56
  %21 = load float, ptr %20, align 4, !tbaa !36
  %22 = fmul float %19, %21
  store float %22, ptr %7, align 4, !tbaa !36
  call void @llvm.lifetime.start.p0(i64 4, ptr %8) #13
  %23 = load ptr, ptr %4, align 8, !tbaa !27
  %24 = getelementptr inbounds nuw %class.btVector3, ptr %23, i32 0, i32 0
  %25 = getelementptr inbounds [4 x float], ptr %24, i64 0, i64 2
  %26 = load float, ptr %25, align 4, !tbaa !36
  %27 = load ptr, ptr %5, align 8, !tbaa !56
  %28 = load float, ptr %27, align 4, !tbaa !36
  %29 = fmul float %26, %28
  store float %29, ptr %8, align 4, !tbaa !36
  call void @_ZN9btVector3C2ERKfS1_S1_(ptr noundef nonnull align 4 dereferenceable(16) %3, ptr noundef nonnull align 4 dereferenceable(4) %6, ptr noundef nonnull align 4 dereferenceable(4) %7, ptr noundef nonnull align 4 dereferenceable(4) %8)
  call void @llvm.lifetime.end.p0(i64 4, ptr %8) #13
  call void @llvm.lifetime.end.p0(i64 4, ptr %7) #13
  call void @llvm.lifetime.end.p0(i64 4, ptr %6) #13
  %30 = getelementptr inbounds nuw %class.btVector3, ptr %3, i32 0, i32 0
  %31 = load { <2 x float>, <2 x float> }, ptr %30, align 4
  ret { <2 x float>, <2 x float> } %31
}

; Function Attrs: inlinehint mustprogress nounwind uwtable
define linkonce_odr dso_local noundef ptr @_ZNK9btVector3cvPKfEv(ptr noundef nonnull align 4 dereferenceable(16) %0) #5 comdat align 2 {
  %2 = alloca ptr, align 8
  store ptr %0, ptr %2, align 8, !tbaa !27
  %3 = load ptr, ptr %2, align 8
  %4 = getelementptr inbounds nuw %class.btVector3, ptr %3, i32 0, i32 0
  %5 = getelementptr inbounds [4 x float], ptr %4, i64 0, i64 0
  ret ptr %5
}

; Function Attrs: mustprogress nounwind uwtable
define linkonce_odr dso_local noundef ptr @_ZNK38btDeformableFaceRigidContactConstraint10getContactEv(ptr noundef nonnull align 8 dereferenceable(105) %0) #1 comdat align 2 {
  %2 = alloca ptr, align 8
  store ptr %0, ptr %2, align 8, !tbaa !129
  %3 = load ptr, ptr %2, align 8
  %4 = getelementptr inbounds nuw %class.btDeformableRigidContactConstraint, ptr %3, i32 0, i32 6
  %5 = load ptr, ptr %4, align 8, !tbaa !102
  ret ptr %5
}

; Function Attrs: inlinehint mustprogress uwtable
define linkonce_odr dso_local { <2 x float>, <2 x float> } @_ZplRK9btVector3S1_(ptr noundef nonnull align 4 dereferenceable(16) %0, ptr noundef nonnull align 4 dereferenceable(16) %1) #8 comdat {
  %3 = alloca %class.btVector3, align 4
  %4 = alloca ptr, align 8
  %5 = alloca ptr, align 8
  %6 = alloca float, align 4
  %7 = alloca float, align 4
  %8 = alloca float, align 4
  store ptr %0, ptr %4, align 8, !tbaa !27
  store ptr %1, ptr %5, align 8, !tbaa !27
  call void @llvm.lifetime.start.p0(i64 4, ptr %6) #13
  %9 = load ptr, ptr %4, align 8, !tbaa !27
  %10 = getelementptr inbounds nuw %class.btVector3, ptr %9, i32 0, i32 0
  %11 = getelementptr inbounds [4 x float], ptr %10, i64 0, i64 0
  %12 = load float, ptr %11, align 4, !tbaa !36
  %13 = load ptr, ptr %5, align 8, !tbaa !27
  %14 = getelementptr inbounds nuw %class.btVector3, ptr %13, i32 0, i32 0
  %15 = getelementptr inbounds [4 x float], ptr %14, i64 0, i64 0
  %16 = load float, ptr %15, align 4, !tbaa !36
  %17 = fadd float %12, %16
  store float %17, ptr %6, align 4, !tbaa !36
  call void @llvm.lifetime.start.p0(i64 4, ptr %7) #13
  %18 = load ptr, ptr %4, align 8, !tbaa !27
  %19 = getelementptr inbounds nuw %class.btVector3, ptr %18, i32 0, i32 0
  %20 = getelementptr inbounds [4 x float], ptr %19, i64 0, i64 1
  %21 = load float, ptr %20, align 4, !tbaa !36
  %22 = load ptr, ptr %5, align 8, !tbaa !27
  %23 = getelementptr inbounds nuw %class.btVector3, ptr %22, i32 0, i32 0
  %24 = getelementptr inbounds [4 x float], ptr %23, i64 0, i64 1
  %25 = load float, ptr %24, align 4, !tbaa !36
  %26 = fadd float %21, %25
  store float %26, ptr %7, align 4, !tbaa !36
  call void @llvm.lifetime.start.p0(i64 4, ptr %8) #13
  %27 = load ptr, ptr %4, align 8, !tbaa !27
  %28 = getelementptr inbounds nuw %class.btVector3, ptr %27, i32 0, i32 0
  %29 = getelementptr inbounds [4 x float], ptr %28, i64 0, i64 2
  %30 = load float, ptr %29, align 4, !tbaa !36
  %31 = load ptr, ptr %5, align 8, !tbaa !27
  %32 = getelementptr inbounds nuw %class.btVector3, ptr %31, i32 0, i32 0
  %33 = getelementptr inbounds [4 x float], ptr %32, i64 0, i64 2
  %34 = load float, ptr %33, align 4, !tbaa !36
  %35 = fadd float %30, %34
  store float %35, ptr %8, align 4, !tbaa !36
  call void @_ZN9btVector3C2ERKfS1_S1_(ptr noundef nonnull align 4 dereferenceable(16) %3, ptr noundef nonnull align 4 dereferenceable(4) %6, ptr noundef nonnull align 4 dereferenceable(4) %7, ptr noundef nonnull align 4 dereferenceable(4) %8)
  call void @llvm.lifetime.end.p0(i64 4, ptr %8) #13
  call void @llvm.lifetime.end.p0(i64 4, ptr %7) #13
  call void @llvm.lifetime.end.p0(i64 4, ptr %6) #13
  %36 = getelementptr inbounds nuw %class.btVector3, ptr %3, i32 0, i32 0
  %37 = load { <2 x float>, <2 x float> }, ptr %36, align 4
  ret { <2 x float>, <2 x float> } %37
}

; Function Attrs: mustprogress uwtable
define dso_local { <2 x float>, <2 x float> } @_ZNK38btDeformableFaceRigidContactConstraint5getDvEPKN10btSoftBody4NodeE(ptr noundef nonnull align 8 dereferenceable(105) %0, ptr noundef %1) unnamed_addr #3 align 2 {
  %3 = alloca %class.btVector3, align 4
  %4 = alloca ptr, align 8
  %5 = alloca ptr, align 8
  %6 = alloca %class.btVector3, align 4
  %7 = alloca ptr, align 8
  %8 = alloca i32, align 4
  store ptr %0, ptr %4, align 8, !tbaa !129
  store ptr %1, ptr %5, align 8, !tbaa !128
  %9 = load ptr, ptr %4, align 8
  call void @llvm.lifetime.start.p0(i64 16, ptr %6) #13
  %10 = getelementptr inbounds nuw %class.btDeformableRigidContactConstraint, ptr %9, i32 0, i32 1
  %11 = getelementptr inbounds nuw %class.btDeformableRigidContactConstraint, ptr %9, i32 0, i32 2
  %12 = call { <2 x float>, <2 x float> } @_ZplRK9btVector3S1_(ptr noundef nonnull align 4 dereferenceable(16) %10, ptr noundef nonnull align 4 dereferenceable(16) %11)
  %13 = getelementptr inbounds nuw %class.btVector3, ptr %6, i32 0, i32 0
  %14 = getelementptr inbounds nuw { <2 x float>, <2 x float> }, ptr %13, i32 0, i32 0
  %15 = extractvalue { <2 x float>, <2 x float> } %12, 0
  store <2 x float> %15, ptr %14, align 4
  %16 = getelementptr inbounds nuw { <2 x float>, <2 x float> }, ptr %13, i32 0, i32 1
  %17 = extractvalue { <2 x float>, <2 x float> } %12, 1
  store <2 x float> %17, ptr %16, align 4
  call void @llvm.lifetime.start.p0(i64 8, ptr %7) #13
  %18 = call noundef ptr @_ZNK38btDeformableFaceRigidContactConstraint10getContactEv(ptr noundef nonnull align 8 dereferenceable(105) %9)
  store ptr %18, ptr %7, align 8, !tbaa !131
  %19 = getelementptr inbounds nuw %class.btDeformableFaceRigidContactConstraint, ptr %9, i32 0, i32 1
  %20 = load ptr, ptr %19, align 8, !tbaa !137
  %21 = getelementptr inbounds nuw %"struct.btSoftBody::Face", ptr %20, i32 0, i32 1
  %22 = getelementptr inbounds [3 x ptr], ptr %21, i64 0, i64 0
  %23 = load ptr, ptr %22, align 8, !tbaa !128
  %24 = load ptr, ptr %5, align 8, !tbaa !128
  %25 = icmp eq ptr %23, %24
  br i1 %25, label %26, label %37

26:                                               ; preds = %2
  %27 = load ptr, ptr %7, align 8, !tbaa !131
  %28 = getelementptr inbounds nuw %"class.btSoftBody::DeformableFaceRigidContact", ptr %27, i32 0, i32 4
  %29 = call noundef ptr @_ZNK9btVector3cvPKfEv(ptr noundef nonnull align 4 dereferenceable(16) %28)
  %30 = getelementptr inbounds float, ptr %29, i64 0
  %31 = call { <2 x float>, <2 x float> } @_ZmlRK9btVector3RKf(ptr noundef nonnull align 4 dereferenceable(16) %6, ptr noundef nonnull align 4 dereferenceable(4) %30)
  %32 = getelementptr inbounds nuw %class.btVector3, ptr %3, i32 0, i32 0
  %33 = getelementptr inbounds nuw { <2 x float>, <2 x float> }, ptr %32, i32 0, i32 0
  %34 = extractvalue { <2 x float>, <2 x float> } %31, 0
  store <2 x float> %34, ptr %33, align 4
  %35 = getelementptr inbounds nuw { <2 x float>, <2 x float> }, ptr %32, i32 0, i32 1
  %36 = extractvalue { <2 x float>, <2 x float> } %31, 1
  store <2 x float> %36, ptr %35, align 4
  store i32 1, ptr %8, align 4
  br label %67

37:                                               ; preds = %2
  %38 = getelementptr inbounds nuw %class.btDeformableFaceRigidContactConstraint, ptr %9, i32 0, i32 1
  %39 = load ptr, ptr %38, align 8, !tbaa !137
  %40 = getelementptr inbounds nuw %"struct.btSoftBody::Face", ptr %39, i32 0, i32 1
  %41 = getelementptr inbounds [3 x ptr], ptr %40, i64 0, i64 1
  %42 = load ptr, ptr %41, align 8, !tbaa !128
  %43 = load ptr, ptr %5, align 8, !tbaa !128
  %44 = icmp eq ptr %42, %43
  br i1 %44, label %45, label %56

45:                                               ; preds = %37
  %46 = load ptr, ptr %7, align 8, !tbaa !131
  %47 = getelementptr inbounds nuw %"class.btSoftBody::DeformableFaceRigidContact", ptr %46, i32 0, i32 4
  %48 = call noundef ptr @_ZNK9btVector3cvPKfEv(ptr noundef nonnull align 4 dereferenceable(16) %47)
  %49 = getelementptr inbounds float, ptr %48, i64 1
  %50 = call { <2 x float>, <2 x float> } @_ZmlRK9btVector3RKf(ptr noundef nonnull align 4 dereferenceable(16) %6, ptr noundef nonnull align 4 dereferenceable(4) %49)
  %51 = getelementptr inbounds nuw %class.btVector3, ptr %3, i32 0, i32 0
  %52 = getelementptr inbounds nuw { <2 x float>, <2 x float> }, ptr %51, i32 0, i32 0
  %53 = extractvalue { <2 x float>, <2 x float> } %50, 0
  store <2 x float> %53, ptr %52, align 4
  %54 = getelementptr inbounds nuw { <2 x float>, <2 x float> }, ptr %51, i32 0, i32 1
  %55 = extractvalue { <2 x float>, <2 x float> } %50, 1
  store <2 x float> %55, ptr %54, align 4
  store i32 1, ptr %8, align 4
  br label %67

56:                                               ; preds = %37
  %57 = load ptr, ptr %7, align 8, !tbaa !131
  %58 = getelementptr inbounds nuw %"class.btSoftBody::DeformableFaceRigidContact", ptr %57, i32 0, i32 4
  %59 = call noundef ptr @_ZNK9btVector3cvPKfEv(ptr noundef nonnull align 4 dereferenceable(16) %58)
  %60 = getelementptr inbounds float, ptr %59, i64 2
  %61 = call { <2 x float>, <2 x float> } @_ZmlRK9btVector3RKf(ptr noundef nonnull align 4 dereferenceable(16) %6, ptr noundef nonnull align 4 dereferenceable(4) %60)
  %62 = getelementptr inbounds nuw %class.btVector3, ptr %3, i32 0, i32 0
  %63 = getelementptr inbounds nuw { <2 x float>, <2 x float> }, ptr %62, i32 0, i32 0
  %64 = extractvalue { <2 x float>, <2 x float> } %61, 0
  store <2 x float> %64, ptr %63, align 4
  %65 = getelementptr inbounds nuw { <2 x float>, <2 x float> }, ptr %62, i32 0, i32 1
  %66 = extractvalue { <2 x float>, <2 x float> } %61, 1
  store <2 x float> %66, ptr %65, align 4
  store i32 1, ptr %8, align 4
  br label %67

67:                                               ; preds = %56, %45, %26
  call void @llvm.lifetime.end.p0(i64 8, ptr %7) #13
  call void @llvm.lifetime.end.p0(i64 16, ptr %6) #13
  %68 = getelementptr inbounds nuw %class.btVector3, ptr %3, i32 0, i32 0
  %69 = load { <2 x float>, <2 x float> }, ptr %68, align 4
  ret { <2 x float>, <2 x float> } %69
}