; Function Attrs: mustprogress nofree norecurse nosync nounwind willreturn memory(read, inaccessiblemem: none) uwtable
define dso_local { <2 x float>, <2 x float> } @_ZNK38btDeformableFaceRigidContactConstraint5getDvEPKN10btSoftBody4NodeE(ptr noundef nonnull readonly align 8 captures(none) dereferenceable(105) %0, ptr noundef readnone captures(address) %1) unnamed_addr #1 align 2 {
  %3 = getelementptr inbounds nuw i8, ptr %0, i64 40
  %4 = getelementptr inbounds nuw i8, ptr %0, i64 56
  %5 = load float, ptr %3, align 8, !tbaa !37
  %6 = load float, ptr %4, align 8, !tbaa !37
  %7 = getelementptr inbounds nuw i8, ptr %0, i64 44
  %8 = load float, ptr %7, align 4, !tbaa !37
  %9 = getelementptr inbounds nuw i8, ptr %0, i64 60
  %10 = load float, ptr %9, align 4, !tbaa !37
  %11 = getelementptr inbounds nuw i8, ptr %0, i64 48
  %12 = load float, ptr %11, align 8, !tbaa !37
  %13 = getelementptr inbounds nuw i8, ptr %0, i64 64
  %14 = load float, ptr %13, align 8, !tbaa !37
  %15 = getelementptr inbounds nuw i8, ptr %0, i64 88
  %16 = load ptr, ptr %15, align 8, !tbaa !77
  %17 = getelementptr inbounds nuw i8, ptr %0, i64 96
  %18 = load ptr, ptr %17, align 8, !tbaa !106
  %19 = getelementptr inbounds nuw i8, ptr %18, i64 16
  %20 = load ptr, ptr %19, align 8, !tbaa !109
  %21 = icmp eq ptr %20, %1
  br i1 %21, label %26, label %22

22:                                               ; preds = %2
  %23 = getelementptr inbounds nuw i8, ptr %18, i64 24
  %24 = load ptr, ptr %23, align 8, !tbaa !109
  %25 = icmp eq ptr %24, %1
  %. = select i1 %25, i64 892, i64 896
  br label %26

26:                                               ; preds = %22, %2
  %.sink = phi i64 [ 888, %2 ], [ %., %22 ]
  %27 = fadd float %12, %14
  %28 = fadd float %8, %10
  %29 = fadd float %5, %6
  %30 = getelementptr inbounds nuw i8, ptr %16, i64 %.sink
  %31 = load float, ptr %30, align 4, !tbaa !37
  %32 = fmul float %29, %31
  %33 = fmul float %28, %31
  %34 = fmul float %27, %31
  %.sroa.0.0.vec.insert.i17 = insertelement <2 x float> poison, float %32, i64 0
  %.sroa.0.4.vec.insert.i18 = insertelement <2 x float> %.sroa.0.0.vec.insert.i17, float %33, i64 1
  %.sroa.3.12.vec.insert.i19 = insertelement <2 x float> <float poison, float 0.000000e+00>, float %34, i64 0
  %.fca.0.insert.i10.pn = insertvalue { <2 x float>, <2 x float> } poison, <2 x float> %.sroa.0.4.vec.insert.i18, 0
  %.pn = insertvalue { <2 x float>, <2 x float> } %.fca.0.insert.i10.pn, <2 x float> %.sroa.3.12.vec.insert.i19, 1
  ret { <2 x float>, <2 x float> } %.pn
}